target datalayout = "e-m:e-p270:32:32-p271:32:32-p272:64:64-i64:64-i128:128-f80:128-n8:16:32:64-S128"
target triple = "x86_64-pc-linux-gnu"

%"class.icu_77::UObject" = type { ptr }
%"class.icu_77::UnicodeString" = type { %"class.icu_77::Replaceable", %"union.icu_77::UnicodeString::StackBufferOrFields" }
%"class.icu_77::Replaceable" = type { %"class.icu_77::UObject" }
%"union.icu_77::UnicodeString::StackBufferOrFields" = type { %struct.anon.0, [32 x i8] }
%struct.anon.0 = type { i16, i32, i32, ptr }
%"class.icu_77::Char16Ptr" = type { ptr }

; Function Attrs: inlinehint mustprogress nounwind uwtable
define linkonce_odr void @_ZN6icu_779Char16PtrD2Ev(ptr noundef nonnull align 8 dereferenceable(8) %0) unnamed_addr #2 comdat align 2 {
  %2 = alloca ptr, align 8
  store ptr %0, ptr %2, align 8, !tbaa !111
  %3 = load ptr, ptr %2, align 8
  %4 = getelementptr inbounds nuw %"class.icu_77::Char16Ptr", ptr %3, i32 0, i32 0
  %5 = load ptr, ptr %4, align 8, !tbaa !113
  call void asm sideeffect "", "rm,~{memory},~{dirflag},~{fpsr},~{flags}"(ptr %5) #13, !srcloc !115
  ret void
}

; Function Attrs: inlinehint mustprogress nounwind uwtable
define linkonce_odr void @_ZN6icu_779Char16PtrC2EPDs(ptr noundef nonnull align 8 dereferenceable(8) %0, ptr noundef %1) unnamed_addr #2 comdat align 2 {
  %3 = alloca ptr, align 8
  %4 = alloca ptr, align 8
  store ptr %0, ptr %3, align 8, !tbaa !111
  store ptr %1, ptr %4, align 8, !tbaa !33
  %5 = load ptr, ptr %3, align 8
  %6 = getelementptr inbounds nuw %"class.icu_77::Char16Ptr", ptr %5, i32 0, i32 0
  %7 = load ptr, ptr %4, align 8, !tbaa !33
  store ptr %7, ptr %6, align 8, !tbaa !113
  ret void
}

; Function Attrs: inlinehint mustprogress nounwind uwtable
define internal noundef signext i8 @_ZL9U_FAILURE10UErrorCode(i32 noundef %0) #2 {
  %2 = alloca i32, align 4
  store i32 %0, ptr %2, align 4, !tbaa !15
  %3 = load i32, ptr %2, align 4, !tbaa !15
  %4 = icmp sgt i32 %3, 0
  %5 = zext i1 %4 to i8
  ret i8 %5
}

; Function Attrs: mustprogress uwtable
define i32 @uldn_keyValueDisplayName_77(ptr noundef %0, ptr noundef %1, ptr noundef %2, ptr noundef %3, i32 noundef %4, ptr noundef %5) #1 personality ptr @__gxx_personality_v0 {
  %7 = alloca i32, align 4
  %8 = alloca ptr, align 8
  %9 = alloca ptr, align 8
  %10 = alloca ptr, align 8
  %11 = alloca ptr, align 8
  %12 = alloca i32, align 4
  %13 = alloca ptr, align 8
  %14 = alloca %"class.icu_77::UnicodeString", align 8
  %15 = alloca ptr, align 8
  %16 = alloca i32, align 4
  %17 = alloca %"class.icu_77::Char16Ptr", align 8
  store ptr %0, ptr %8, align 8, !tbaa !109
  store ptr %1, ptr %9, align 8, !tbaa !17
  store ptr %2, ptr %10, align 8, !tbaa !17
  store ptr %3, ptr %11, align 8, !tbaa !33
  store i32 %4, ptr %12, align 4, !tbaa !14
  store ptr %5, ptr %13, align 8, !tbaa !22
  %18 = load ptr, ptr %13, align 8, !tbaa !22
  %19 = load i32, ptr %18, align 4, !tbaa !15
  %20 = call noundef signext i8 @_ZL9U_FAILURE10UErrorCode(i32 noundef %19)
  %21 = icmp ne i8 %20, 0
  br i1 %21, label %22, label %23

22:                                               ; preds = %6
  store i32 0, ptr %7, align 4
  br label %69

23:                                               ; preds = %6
  %24 = load ptr, ptr %8, align 8, !tbaa !109
  %25 = icmp eq ptr %24, null
  br i1 %25, label %41, label %26

26:                                               ; preds = %23
  %27 = load ptr, ptr %9, align 8, !tbaa !17
  %28 = icmp eq ptr %27, null
  br i1 %28, label %41, label %29

29:                                               ; preds = %26
  %30 = load ptr, ptr %10, align 8, !tbaa !17
  %31 = icmp eq ptr %30, null
  br i1 %31, label %41, label %32

32:                                               ; preds = %29
  %33 = load ptr, ptr %11, align 8, !tbaa !33
  %34 = icmp eq ptr %33, null
  br i1 %34, label %35, label %38

35:                                               ; preds = %32
  %36 = load i32, ptr %12, align 4, !tbaa !14
  %37 = icmp sgt i32 %36, 0
  br i1 %37, label %41, label %38

38:                                               ; preds = %35, %32
  %39 = load i32, ptr %12, align 4, !tbaa !14
  %40 = icmp slt i32 %39, 0
  br i1 %40, label %41, label %43

41:                                               ; preds = %38, %35, %29, %26, %23
  %42 = load ptr, ptr %13, align 8, !tbaa !22
  store i32 1, ptr %42, align 4, !tbaa !15
  store i32 0, ptr %7, align 4
  br label %69

43:                                               ; preds = %38
  call void @llvm.lifetime.start.p0(i64 64, ptr %14) #13
  %44 = load ptr, ptr %11, align 8, !tbaa !33
  %45 = load i32, ptr %12, align 4, !tbaa !14
  call void @_ZN6icu_7713UnicodeStringC1EPDsii(ptr noundef nonnull align 8 dereferenceable(64) %14, ptr noundef %44, i32 noundef 0, i32 noundef %45)
  %46 = load ptr, ptr %8, align 8, !tbaa !109
  %47 = load ptr, ptr %9, align 8, !tbaa !17
  %48 = load ptr, ptr %10, align 8, !tbaa !17
  %49 = load ptr, ptr %46, align 8, !tbaa !42
  %50 = getelementptr inbounds ptr, ptr %49, i64 14
  %51 = load ptr, ptr %50, align 8
  %52 = invoke noundef nonnull align 8 dereferenceable(64) ptr %51(ptr noundef nonnull align 8 dereferenceable(8) %46, ptr noundef %47, ptr noundef %48, ptr noundef nonnull align 8 dereferenceable(64) %14)
          to label %53 unwind label %60

53:                                               ; preds = %43
  %54 = load ptr, ptr %11, align 8, !tbaa !33
  invoke void @_ZN6icu_779Char16PtrC2EPDs(ptr noundef nonnull align 8 dereferenceable(8) %17, ptr noundef %54)
          to label %55 unwind label %60

55:                                               ; preds = %53
  %56 = load i32, ptr %12, align 4, !tbaa !14
  %57 = load ptr, ptr %13, align 8, !tbaa !22
  %58 = invoke noundef i32 @_ZNK6icu_7713UnicodeString7extractENS_9Char16PtrEiR10UErrorCode(ptr noundef nonnull align 8 dereferenceable(64) %14, ptr noundef %17, i32 noundef %56, ptr noundef nonnull align 4 dereferenceable(4) %57)
          to label %59 unwind label %64

59:                                               ; preds = %55
  store i32 %58, ptr %7, align 4
  call void @_ZN6icu_779Char16PtrD2Ev(ptr noundef nonnull align 8 dereferenceable(8) %17) #13
  call void @_ZN6icu_7713UnicodeStringD1Ev(ptr noundef nonnull align 8 dereferenceable(64) %14) #13
  call void @llvm.lifetime.end.p0(i64 64, ptr %14) #13
  br label %69

60:                                               ; preds = %53, %43
  %61 = landingpad { ptr, i32 }
          cleanup
  %62 = extractvalue { ptr, i32 } %61, 0
  store ptr %62, ptr %15, align 8
  %63 = extractvalue { ptr, i32 } %61, 1
  store i32 %63, ptr %16, align 4
  br label %68

64:                                               ; preds = %55
  %65 = landingpad { ptr, i32 }
          cleanup
  %66 = extractvalue { ptr, i32 } %65, 0
  store ptr %66, ptr %15, align 8
  %67 = extractvalue { ptr, i32 } %65, 1
  store i32 %67, ptr %16, align 4
  call void @_ZN6icu_779Char16PtrD2Ev(ptr noundef nonnull align 8 dereferenceable(8) %17) #13
  br label %68

68:                                               ; preds = %64, %60
  call void @_ZN6icu_7713UnicodeStringD1Ev(ptr noundef nonnull align 8 dereferenceable(64) %14) #13
  call void @llvm.lifetime.end.p0(i64 64, ptr %14) #13
  br label %71

69:                                               ; preds = %59, %41, %22
  %70 = load i32, ptr %7, align 4
  ret i32 %70

71:                                               ; preds = %68
  %72 = load ptr, ptr %15, align 8
  %73 = load i32, ptr %16, align 4
  %74 = insertvalue { ptr, i32 } poison, ptr %72, 0
  %75 = insertvalue { ptr, i32 } %74, i32 %73, 1
  resume { ptr, i32 } %75
}