; Function Attrs: mustprogress uwtable
define noundef i32 @uldn_keyValueDisplayName_77(ptr noundef %0, ptr noundef %1, ptr noundef %2, ptr noundef %3, i32 noundef %4, ptr noundef %5) local_unnamed_addr #1 personality ptr @__gxx_personality_v0 {
  %7 = alloca %"class.icu_77::UnicodeString", align 8
  %8 = alloca %"class.icu_77::Char16Ptr", align 8
  %9 = load i32, ptr %5, align 4, !tbaa !13
  %10 = icmp slt i32 %9, 1
  br i1 %10, label %11, label %35

11:                                               ; preds = %6
  %12 = icmp eq ptr %0, null
  %13 = icmp eq ptr %1, null
  %or.cond = or i1 %12, %13
  %14 = icmp eq ptr %2, null
  %or.cond3 = or i1 %or.cond, %14
  br i1 %or.cond3, label %19, label %15

15:                                               ; preds = %11
  %16 = icmp eq ptr %3, null
  %17 = icmp sgt i32 %4, 0
  %or.cond5 = and i1 %16, %17
  %18 = icmp slt i32 %4, 0
  %or.cond7 = or i1 %18, %or.cond5
  br i1 %or.cond7, label %19, label %20

19:                                               ; preds = %15, %11
  store i32 1, ptr %5, align 4, !tbaa !13
  br label %35

20:                                               ; preds = %15
  call void @llvm.lifetime.start.p0(i64 64, ptr nonnull %7) #19
  call void @_ZN6icu_7713UnicodeStringC1EPDsii(ptr noundef nonnull align 8 dereferenceable(64) %7, ptr noundef %3, i32 noundef 0, i32 noundef %4)
  %21 = load ptr, ptr %0, align 8, !tbaa !21
  %22 = getelementptr inbounds nuw i8, ptr %21, i64 112
  %23 = load ptr, ptr %22, align 8
  %24 = invoke noundef nonnull align 8 dereferenceable(64) ptr %23(ptr noundef nonnull align 8 dereferenceable(8) %0, ptr noundef nonnull %1, ptr noundef nonnull %2, ptr noundef nonnull align 8 dereferenceable(64) %7)
          to label %25 unwind label %29

25:                                               ; preds = %20
  store ptr %3, ptr %8, align 8, !tbaa !62
  %26 = invoke noundef i32 @_ZNK6icu_7713UnicodeString7extractENS_9Char16PtrEiR10UErrorCode(ptr noundef nonnull align 8 dereferenceable(64) %7, ptr noundef nonnull %8, i32 noundef %4, ptr noundef nonnull align 4 dereferenceable(4) %5)
          to label %27 unwind label %31

27:                                               ; preds = %25
  %28 = load ptr, ptr %8, align 8, !tbaa !62
  call void asm sideeffect "", "rm,~{memory},~{dirflag},~{fpsr},~{flags}"(ptr %28) #19, !srcloc !65
  call void @_ZN6icu_7713UnicodeStringD1Ev(ptr noundef nonnull align 8 dereferenceable(64) %7) #19
  call void @llvm.lifetime.end.p0(i64 64, ptr nonnull %7) #19
  br label %35

29:                                               ; preds = %20
  %30 = landingpad { ptr, i32 }
          cleanup
  br label %34

31:                                               ; preds = %25
  %32 = landingpad { ptr, i32 }
          cleanup
  %33 = load ptr, ptr %8, align 8, !tbaa !62
  call void asm sideeffect "", "rm,~{memory},~{dirflag},~{fpsr},~{flags}"(ptr %33) #19, !srcloc !65
  br label %34

34:                                               ; preds = %31, %29
  %.pn = phi { ptr, i32 } [ %32, %31 ], [ %30, %29 ]
  call void @_ZN6icu_7713UnicodeStringD1Ev(ptr noundef nonnull align 8 dereferenceable(64) %7) #19
  call void @llvm.lifetime.end.p0(i64 64, ptr nonnull %7) #19
  resume { ptr, i32 } %.pn

35:                                               ; preds = %6, %27, %19
  %.026 = phi i32 [ 0, %19 ], [ %26, %27 ], [ 0, %6 ]
  ret i32 %.026
}